ccopy_reg
_reconstructor
p0
(cnetworkx.classes.graph
Graph
p1
c__builtin__
object
p2
Ntp3
Rp4
(dp5
S'node'
p6
(dp7
I0
(dp8
sI1
(dp9
sI2
(dp10
sI3
(dp11
sI4
(dp12
sI5
(dp13
sI6
(dp14
sI7
(dp15
sI8
(dp16
sI9
(dp17
sI10
(dp18
sI11
(dp19
sI12
(dp20
sI13
(dp21
sI14
(dp22
sI15
(dp23
sI16
(dp24
sI17
(dp25
sI18
(dp26
sI19
(dp27
sI20
(dp28
sI21
(dp29
sI22
(dp30
sI23
(dp31
sI24
(dp32
sI25
(dp33
sI26
(dp34
sI27
(dp35
sI28
(dp36
sI29
(dp37
sI30
(dp38
sI31
(dp39
sI32
(dp40
sI33
(dp41
sI34
(dp42
sI35
(dp43
sI36
(dp44
sI37
(dp45
sI38
(dp46
sI39
(dp47
sI40
(dp48
sI41
(dp49
sI42
(dp50
sI43
(dp51
sI44
(dp52
sI45
(dp53
sI46
(dp54
sI47
(dp55
sI48
(dp56
sI49
(dp57
sI50
(dp58
sI51
(dp59
sI52
(dp60
sI53
(dp61
sI54
(dp62
sI55
(dp63
sI56
(dp64
sI57
(dp65
sI58
(dp66
sI59
(dp67
sI60
(dp68
sI61
(dp69
sI62
(dp70
sI63
(dp71
sI64
(dp72
sI65
(dp73
sI66
(dp74
sI67
(dp75
sI68
(dp76
sI69
(dp77
sI70
(dp78
sI71
(dp79
sI72
(dp80
sI73
(dp81
sI74
(dp82
sI75
(dp83
sI76
(dp84
sI77
(dp85
sI78
(dp86
sI79
(dp87
sI80
(dp88
sI81
(dp89
sI82
(dp90
sI83
(dp91
sI84
(dp92
sI85
(dp93
sI86
(dp94
sI87
(dp95
sI88
(dp96
sI89
(dp97
sI90
(dp98
sI91
(dp99
sI92
(dp100
sI93
(dp101
sI94
(dp102
sI95
(dp103
sI96
(dp104
sI97
(dp105
sI98
(dp106
sI99
(dp107
sI100
(dp108
sI101
(dp109
sI102
(dp110
sI103
(dp111
sI104
(dp112
sI105
(dp113
sI106
(dp114
sI107
(dp115
sI108
(dp116
sI109
(dp117
sI110
(dp118
sI111
(dp119
sI112
(dp120
sI113
(dp121
sI114
(dp122
sI115
(dp123
sI116
(dp124
sI117
(dp125
sI118
(dp126
sI119
(dp127
sI120
(dp128
sI121
(dp129
sI122
(dp130
sI123
(dp131
sI124
(dp132
sI125
(dp133
sI126
(dp134
sI127
(dp135
sI128
(dp136
sI129
(dp137
sI130
(dp138
sI131
(dp139
sI132
(dp140
sI133
(dp141
sI134
(dp142
sI135
(dp143
sI136
(dp144
sI137
(dp145
sI138
(dp146
sI139
(dp147
sI140
(dp148
sI141
(dp149
sI142
(dp150
sI143
(dp151
sI144
(dp152
sI145
(dp153
sI146
(dp154
sI147
(dp155
sI148
(dp156
sI149
(dp157
sI150
(dp158
sI151
(dp159
sI152
(dp160
sI153
(dp161
sI154
(dp162
sI155
(dp163
sI156
(dp164
sI157
(dp165
sI158
(dp166
sI159
(dp167
ssS'node_dict_factory'
p168
c__builtin__
dict
p169
sS'edge_attr_dict_factory'
p170
g169
sS'edge'
p171
(dp172
I0
(dp173
I32
(dp174
sI26
(dp175
sI27
(dp176
sI122
(dp177
ssI1
(dp178
I129
(dp179
sI147
(dp180
sI36
(dp181
sI21
(dp182
sI37
(dp183
ssI2
(dp184
I153
(dp185
sI71
(dp186
sI63
(dp187
sI15
(dp188
ssI3
(dp189
I38
(dp190
sI7
(dp191
sI11
(dp192
sI111
(dp193
sI19
(dp194
sI117
(dp195
sI88
(dp196
sI126
(dp197
ssI4
(dp198
I34
(dp199
sI100
(dp200
sI74
(dp201
sI76
(dp202
sI50
(dp203
sI148
(dp204
ssI5
(dp205
I145
(dp206
sI122
(dp207
sI92
(dp208
sI135
(dp209
ssI6
(dp210
I96
(dp211
sI67
(dp212
sI7
(dp213
sI10
(dp214
sI14
(dp215
sI19
(dp216
sI84
(dp217
sI25
(dp218
sI94
(dp219
ssI7
(dp220
I96
(dp221
sI3
g191
sI6
g213
sI38
(dp222
sI42
(dp223
sI11
(dp224
sI19
(dp225
sI88
(dp226
sI25
(dp227
sI10
(dp228
ssI8
(dp229
sI9
(dp230
I57
(dp231
sI149
(dp232
sI150
(dp233
sI121
(dp234
ssI10
(dp235
I88
(dp236
sI96
(dp237
sI14
(dp238
sI6
g214
sI7
g228
ssI11
(dp239
I88
(dp240
sI42
(dp241
sI3
g192
sI7
g224
ssI12
(dp242
I72
(dp243
sI65
(dp244
sI114
(dp245
sI81
(dp246
ssI13
(dp247
I147
(dp248
sI84
(dp249
sI21
(dp250
sI37
(dp251
ssI14
(dp252
I88
(dp253
sI10
g238
sI131
(dp254
sI6
g215
ssI15
(dp255
I40
(dp256
sI2
g188
sI125
(dp257
sI130
(dp258
sI71
(dp259
ssI16
(dp260
sI17
(dp261
I107
(dp262
sI137
(dp263
sI90
(dp264
sI99
(dp265
sI21
(dp266
ssI18
(dp267
I69
(dp268
ssI19
(dp269
I3
g194
sI6
g216
sI7
g225
sI82
(dp270
sI22
(dp271
sI94
(dp272
ssI20
(dp273
I137
(dp274
sI82
(dp275
sI84
(dp276
sI22
(dp277
sI90
(dp278
sI94
(dp279
ssI21
(dp280
I1
g182
sI35
(dp281
sI36
(dp282
sI129
(dp283
sI13
g250
sI17
g266
sI150
(dp284
sI119
(dp285
ssI22
(dp286
I25
(dp287
sI19
g271
sI20
g277
ssI23
(dp288
sI24
(dp289
sI25
(dp290
I6
g218
sI22
g287
sI7
g227
ssI26
(dp291
I0
g175
sI32
(dp292
sI92
(dp293
sI83
(dp294
sI27
(dp295
sI28
(dp296
ssI27
(dp297
I0
g176
sI32
(dp298
sI33
(dp299
sI26
g295
sI92
(dp300
sI62
(dp301
ssI28
(dp302
I33
(dp303
sI26
g296
sI92
(dp304
ssI29
(dp305
sI30
(dp306
sI31
(dp307
I129
(dp308
sI140
(dp309
sI68
(dp310
sI47
(dp311
ssI32
(dp312
I0
g174
sI26
g292
sI27
g298
sI92
(dp313
ssI33
(dp314
I92
(dp315
sI106
(dp316
sI27
g299
sI28
g303
sI85
(dp317
ssI34
(dp318
I148
(dp319
sI100
(dp320
sI50
(dp321
sI75
(dp322
sI4
g199
ssI35
(dp323
I97
(dp324
sI36
(dp325
sI21
g281
sI150
(dp326
sI119
(dp327
sI121
(dp328
sI149
(dp329
ssI36
(dp330
I1
g181
sI35
g325
sI37
(dp331
sI147
(dp332
sI21
g282
sI119
(dp333
ssI37
(dp334
I1
g183
sI36
g331
sI129
(dp335
sI13
g251
sI147
(dp336
sI84
(dp337
sI116
(dp338
ssI38
(dp339
I3
g190
sI7
g222
sI138
(dp340
sI117
(dp341
sI88
(dp342
sI126
(dp343
ssI39
(dp344
sI40
(dp345
I130
(dp346
sI71
(dp347
sI125
(dp348
sI15
g256
ssI41
(dp349
I121
(dp350
sI60
(dp351
sI141
(dp352
ssI42
(dp353
I72
(dp354
sI58
(dp355
sI11
g241
sI7
g223
ssI43
(dp356
I70
(dp357
sI135
(dp358
sI79
(dp359
sI145
(dp360
sI57
(dp361
sI143
(dp362
ssI44
(dp363
I151
(dp364
sI159
(dp365
sI63
(dp366
ssI45
(dp367
sI46
(dp368
sI47
(dp369
I68
(dp370
sI74
(dp371
sI140
(dp372
sI48
(dp373
sI56
(dp374
sI59
(dp375
sI31
g311
ssI48
(dp376
I136
(dp377
sI105
(dp378
sI47
g373
sI112
(dp379
sI49
(dp380
sI83
(dp381
sI73
(dp382
sI56
(dp383
sI59
(dp384
sI61
(dp385
ssI49
(dp386
I112
(dp387
sI68
(dp388
sI105
(dp389
sI48
g380
sI83
(dp390
sI73
(dp391
sI56
(dp392
sI59
(dp393
sI61
(dp394
ssI50
(dp395
I34
g321
sI100
(dp396
sI74
(dp397
sI75
(dp398
sI148
(dp399
sI4
g203
sI61
(dp400
ssI51
(dp401
I64
(dp402
sI106
(dp403
sI85
(dp404
sI86
(dp405
ssI52
(dp406
I82
(dp407
sI67
(dp408
sI84
(dp409
sI94
(dp410
ssI53
(dp411
sI54
(dp412
I91
(dp413
sI60
(dp414
sI69
(dp415
sI78
(dp416
sI55
(dp417
ssI55
(dp418
I131
(dp419
sI104
(dp420
sI111
(dp421
sI54
g417
sI87
(dp422
sI120
(dp423
ssI56
(dp424
I112
(dp425
sI105
(dp426
sI47
g374
sI48
g383
sI49
g392
sI73
(dp427
sI59
(dp428
ssI57
(dp429
I70
(dp430
sI135
(dp431
sI9
g231
sI43
g361
sI145
(dp432
sI148
(dp433
ssI58
(dp434
I42
g355
sI134
(dp435
ssI59
(dp436
I112
(dp437
sI105
(dp438
sI47
g375
sI48
g384
sI49
g393
sI73
(dp439
sI56
g428
ssI60
(dp440
I41
g351
sI109
(dp441
sI78
(dp442
sI54
g414
sI90
(dp443
sI91
(dp444
ssI61
(dp445
I100
(dp446
sI74
(dp447
sI48
g385
sI49
g394
sI50
g400
sI68
(dp448
ssI62
(dp449
I27
g301
ssI63
(dp450
I64
(dp451
sI2
g187
sI44
g366
ssI64
(dp452
I106
(dp453
sI51
g402
sI86
(dp454
sI63
g451
ssI65
(dp455
I72
(dp456
sI12
g244
sI81
(dp457
sI114
(dp458
sI104
(dp459
sI124
(dp460
ssI66
(dp461
sI67
(dp462
I6
g212
sI82
(dp463
sI115
(dp464
sI84
(dp465
sI126
(dp466
sI52
g408
sI90
(dp467
sI94
(dp468
ssI68
(dp469
I105
(dp470
sI140
(dp471
sI47
g370
sI49
g388
sI73
(dp472
sI61
g448
sI31
g310
ssI69
(dp473
I18
g268
sI54
g415
sI151
(dp474
ssI70
(dp475
I57
g430
sI148
(dp476
sI43
g357
sI76
(dp477
sI145
(dp478
ssI71
(dp479
I40
g347
sI2
g186
sI79
(dp480
sI130
(dp481
sI15
g259
ssI72
(dp482
I65
g456
sI42
g354
sI12
g243
sI81
(dp483
sI114
(dp484
sI124
(dp485
ssI73
(dp486
I112
(dp487
sI68
g472
sI105
(dp488
sI48
g382
sI49
g391
sI83
(dp489
sI56
g427
sI59
g439
ssI74
(dp490
I4
g201
sI75
(dp491
sI79
(dp492
sI50
g397
sI89
(dp493
sI100
(dp494
sI47
g371
sI61
g447
ssI75
(dp495
I34
g322
sI100
(dp496
sI74
g491
sI50
g398
sI83
(dp497
sI148
(dp498
sI89
(dp499
ssI76
(dp500
I89
(dp501
sI4
g202
sI70
g477
ssI77
(dp502
I83
(dp503
sI148
(dp504
sI125
(dp505
ssI78
(dp506
I60
g442
sI54
g416
ssI79
(dp507
I74
g492
sI43
g359
sI143
(dp508
sI71
g480
ssI80
(dp509
I98
(dp510
ssI81
(dp511
I72
g483
sI65
g457
sI114
(dp512
sI12
g246
ssI82
(dp513
I67
g463
sI133
(dp514
sI115
(dp515
sI19
g270
sI84
(dp516
sI94
(dp517
sI120
(dp518
sI52
g407
sI20
g275
ssI83
(dp519
I73
g489
sI75
g497
sI77
g503
sI48
g381
sI49
g390
sI26
g294
sI90
(dp520
ssI84
(dp521
I67
g465
sI37
g337
sI6
g217
sI13
g249
sI82
g516
sI52
g409
sI20
g276
sI94
(dp522
ssI85
(dp523
I33
g317
sI51
g404
sI92
(dp524
sI86
(dp525
ssI86
(dp526
I64
g454
sI106
(dp527
sI51
g405
sI92
(dp528
sI85
g525
ssI87
(dp529
I104
(dp530
sI111
(dp531
sI55
g422
ssI88
(dp532
I3
g196
sI38
g342
sI7
g226
sI10
g236
sI11
g240
sI14
g253
ssI89
(dp533
I74
g493
sI75
g499
sI76
g501
ssI90
(dp534
I67
g467
sI137
(dp535
sI107
(dp536
sI99
(dp537
sI17
g264
sI83
g520
sI20
g278
sI115
(dp538
sI60
g443
ssI91
(dp539
I121
(dp540
sI126
(dp541
sI60
g444
sI109
(dp542
sI54
g413
ssI92
(dp543
I32
g313
sI33
g315
sI5
g208
sI85
g524
sI86
g528
sI26
g293
sI27
g300
sI28
g304
ssI93
(dp544
sI94
(dp545
I84
g522
sI67
g468
sI6
g219
sI82
g517
sI19
g272
sI52
g410
sI20
g279
ssI95
(dp546
sI96
(dp547
I10
g237
sI6
g211
sI7
g221
ssI97
(dp548
I136
(dp549
sI35
g324
sI150
(dp550
sI119
(dp551
ssI98
(dp552
I80
g510
sI114
(dp553
sI111
(dp554
sI151
(dp555
ssI99
(dp556
I115
(dp557
sI17
g265
sI90
g537
sI107
(dp558
sI137
(dp559
ssI100
(dp560
I34
g320
sI4
g200
sI74
g494
sI75
g496
sI50
g396
sI61
g446
ssI101
(dp561
sI102
(dp562
sI103
(dp563
sI104
(dp564
I65
g459
sI55
g420
sI111
(dp565
sI146
(dp566
sI87
g530
sI120
(dp567
ssI105
(dp568
I112
(dp569
sI68
g470
sI73
g488
sI48
g378
sI49
g389
sI56
g426
sI59
g438
ssI106
(dp570
I64
g453
sI33
g316
sI113
(dp571
sI51
g403
sI86
g527
sI122
(dp572
ssI107
(dp573
I115
(dp574
sI17
g262
sI90
g536
sI99
g558
sI137
(dp575
ssI108
(dp576
I110
(dp577
sI151
(dp578
ssI109
(dp579
I121
(dp580
sI91
g542
sI60
g441
ssI110
(dp581
I108
g577
sI151
(dp582
ssI111
(dp583
I98
g554
sI3
g193
sI104
g565
sI138
(dp584
sI55
g421
sI87
g531
ssI112
(dp585
I73
g487
sI48
g379
sI49
g387
sI105
g569
sI56
g425
sI59
g437
ssI113
(dp586
I106
g571
sI122
(dp587
ssI114
(dp588
I65
g458
sI98
g553
sI72
g484
sI12
g245
sI81
g512
sI124
(dp589
ssI115
(dp590
I99
g557
sI107
g574
sI82
g515
sI67
g464
sI90
g538
ssI116
(dp591
I129
(dp592
sI37
g338
sI141
(dp593
sI147
(dp594
sI119
(dp595
sI124
(dp596
ssI117
(dp597
I3
g195
sI131
(dp598
sI126
(dp599
sI38
g341
ssI118
(dp600
sI119
(dp601
I97
g551
sI35
g327
sI36
g333
sI141
(dp602
sI147
(dp603
sI116
g595
sI21
g285
sI150
(dp604
ssI120
(dp605
I131
(dp606
sI133
(dp607
sI104
g567
sI138
(dp608
sI146
(dp609
sI142
(dp610
sI82
g518
sI55
g423
ssI121
(dp611
I35
g328
sI9
g234
sI109
g580
sI149
(dp612
sI41
g350
sI91
g540
ssI122
(dp613
I0
g177
sI113
g587
sI106
g572
sI5
g207
ssI123
(dp614
sI124
(dp615
I72
g485
sI65
g460
sI114
g589
sI116
g596
ssI125
(dp616
I130
(dp617
sI40
g348
sI77
g505
sI15
g257
sI153
(dp618
sI156
(dp619
ssI126
(dp620
I91
g541
sI67
g466
sI3
g197
sI117
g599
sI38
g343
ssI127
(dp621
sI128
(dp622
sI129
(dp623
I1
g179
sI37
g335
sI139
(dp624
sI116
g592
sI21
g283
sI31
g308
ssI130
(dp625
I40
g346
sI71
g481
sI156
(dp626
sI125
g617
sI15
g258
ssI131
(dp627
I133
(dp628
sI138
(dp629
sI14
g254
sI117
g598
sI55
g419
sI120
g606
ssI132
(dp630
sI133
(dp631
I131
g628
sI138
(dp632
sI146
(dp633
sI142
(dp634
sI141
(dp635
sI82
g514
sI120
g607
ssI134
(dp636
I58
g435
ssI135
(dp637
I57
g431
sI43
g358
sI143
(dp638
sI5
g209
sI145
(dp639
ssI136
(dp640
I48
g377
sI97
g549
sI140
(dp641
ssI137
(dp642
I107
g575
sI17
g263
sI90
g535
sI99
g559
sI20
g274
ssI138
(dp643
I120
g608
sI131
g629
sI133
g632
sI38
g340
sI111
g584
ssI139
(dp644
I129
g624
sI140
(dp645
ssI140
(dp646
I136
g641
sI47
g372
sI68
g471
sI139
g645
sI31
g309
ssI141
(dp647
I41
g352
sI116
g593
sI133
g635
sI119
g602
ssI142
(dp648
I120
g610
sI146
(dp649
sI133
g634
ssI143
(dp650
I152
(dp651
sI145
(dp652
sI43
g362
sI135
g638
sI79
g508
ssI144
(dp653
sI145
(dp654
I5
g206
sI70
g478
sI135
g639
sI43
g360
sI143
g652
sI150
(dp655
sI57
g432
ssI146
(dp656
I104
g566
sI120
g609
sI133
g633
sI142
g649
ssI147
(dp657
I1
g180
sI36
g332
sI37
g336
sI13
g248
sI116
g594
sI149
(dp658
sI119
g603
ssI148
(dp659
I34
g319
sI4
g204
sI70
g476
sI75
g498
sI77
g504
sI50
g399
sI57
g433
ssI149
(dp660
I9
g232
sI35
g329
sI147
g658
sI150
(dp661
sI121
g612
ssI150
(dp662
I97
g550
sI35
g326
sI9
g233
sI145
g655
sI21
g284
sI119
g604
sI149
g661
ssI151
(dp663
I108
g578
sI98
g555
sI44
g364
sI69
g474
sI110
g582
ssI152
(dp664
I143
g651
ssI153
(dp665
I2
g185
sI125
g618
ssI154
(dp666
sI155
(dp667
sI156
(dp668
I130
g626
sI125
g619
ssI157
(dp669
sI158
(dp670
sI159
(dp671
I44
g365
sssS'graph'
p672
(dp673
sS'adjlist_dict_factory'
p674
g169
sS'adj'
p675
g172
sb.